target datalayout = "e-m:e-p270:32:32-p271:32:32-p272:64:64-i64:64-i128:128-f80:128-n8:16:32:64-S128"
target triple = "x86_64-pc-linux-gnu"

%struct.ssl_st = type { i32, i16, i16, ptr, ptr, ptr, ptr, ptr, i32, i32, ptr, ptr, i32, i32, ptr, ptr, ptr, ptr, ptr, ptr, ptr, ptr, i32, i32, [32 x i8], ptr, ptr, ptr, ptr, ptr, ptr, ptr, i64, %struct.crypto_ex_data_st, ptr, i32, i32, i32, i32, i16, ptr, i32, i64, ptr, ptr, ptr, ptr, ptr, ptr, i32, i32, ptr, ptr, i8, i8, i32 }
%struct.crypto_ex_data_st = type { ptr }
%struct.ssl3_state_st = type { [8 x i8], [8 x i8], [32 x i8], [32 x i8], i8, i8, %struct.ssl3_buffer_st, %struct.ssl3_buffer_st, %struct.ssl3_record_st, i8, i32, i32, i32, i32, ptr, ptr, %struct.env_md_ctx_st, %struct.env_md_ctx_st, i8, i32, [2 x i8], i32, i8, i8, ptr, ptr, ptr, %struct.anon, [64 x i8], i8, [64 x i8], i8, i32, i32, ptr, i64, ptr, i64, i8, [64 x i8] }
%struct.ssl3_buffer_st = type { ptr, i16, i16, i16 }
%struct.ssl3_record_st = type { i8, i16, ptr }
%struct.env_md_ctx_st = type { ptr, ptr, ptr, ptr }
%struct.anon = type { [64 x i8], i32, [64 x i8], i32, i64, i32, ptr, i32, i32, %union.anon, %union.anon.0, i8, i32, ptr, ptr, i64, ptr, i8, i8, i8, i8, i32, i8, ptr, i64, i8, ptr, i8, i8, i8, %struct.ssl_ecdh_ctx_st, ptr, i16 }
%union.anon = type { i32 }
%union.anon.0 = type { i16 }
%struct.ssl_ecdh_ctx_st = type { ptr, ptr }
%struct.cbb_st = type { ptr, ptr, i64, i8, i8, i8 }
%struct.ssl_ctx_st = type { ptr, %union.crypto_mutex_st, i16, i16, ptr, ptr, ptr, ptr, ptr, ptr, i64, ptr, ptr, i32, i32, i64, ptr, ptr, ptr, i32, ptr, ptr, ptr, ptr, ptr, ptr, %struct.crypto_ex_data_st, ptr, ptr, ptr, ptr, i32, i32, i32, ptr, ptr, ptr, i32, i32, [32 x i8], ptr, ptr, ptr, ptr, i16, ptr, ptr, [16 x i8], [16 x i8], [16 x i8], ptr, ptr, ptr, ptr, i8, ptr, ptr, ptr, ptr, ptr, ptr, ptr, i32, ptr, i64, ptr, ptr, ptr, i64, ptr, i64, ptr, ptr, i8, ptr, i32 }
%union.crypto_mutex_st = type { double, [48 x i8] }

; Function Attrs: nounwind uwtable
define internal i32 @ext_npn_add_serverhello(ptr noundef %0, ptr noundef %1) #0 {
  %3 = alloca i32, align 4
  %4 = alloca ptr, align 8
  %5 = alloca ptr, align 8
  %6 = alloca ptr, align 8
  %7 = alloca i32, align 4
  %8 = alloca i32, align 4
  %9 = alloca %struct.cbb_st, align 8
  store ptr %0, ptr %4, align 8, !tbaa !69
  store ptr %1, ptr %5, align 8, !tbaa !128
  %10 = load ptr, ptr %4, align 8, !tbaa !69
  %11 = getelementptr inbounds nuw %struct.ssl_st, ptr %10, i32 0, i32 14
  %12 = load ptr, ptr %11, align 8, !tbaa !75
  %13 = getelementptr inbounds nuw %struct.ssl3_state_st, ptr %12, i32 0, i32 33
  %14 = load i32, ptr %13, align 8, !tbaa !191
  %15 = icmp ne i32 %14, 0
  br i1 %15, label %17, label %16

16:                                               ; preds = %2
  store i32 1, ptr %3, align 4
  br label %58

17:                                               ; preds = %2
  call void @llvm.lifetime.start.p0(i64 8, ptr %6) #8
  call void @llvm.lifetime.start.p0(i64 4, ptr %7) #8
  %18 = load ptr, ptr %4, align 8, !tbaa !69
  %19 = getelementptr inbounds nuw %struct.ssl_st, ptr %18, i32 0, i32 31
  %20 = load ptr, ptr %19, align 8, !tbaa !145
  %21 = getelementptr inbounds nuw %struct.ssl_ctx_st, ptr %20, i32 0, i32 55
  %22 = load ptr, ptr %21, align 8, !tbaa !198
  %23 = load ptr, ptr %4, align 8, !tbaa !69
  %24 = load ptr, ptr %4, align 8, !tbaa !69
  %25 = getelementptr inbounds nuw %struct.ssl_st, ptr %24, i32 0, i32 31
  %26 = load ptr, ptr %25, align 8, !tbaa !145
  %27 = getelementptr inbounds nuw %struct.ssl_ctx_st, ptr %26, i32 0, i32 56
  %28 = load ptr, ptr %27, align 8, !tbaa !199
  %29 = call i32 %22(ptr noundef %23, ptr noundef %6, ptr noundef %7, ptr noundef %28)
  %30 = icmp ne i32 %29, 0
  br i1 %30, label %31, label %36

31:                                               ; preds = %17
  %32 = load ptr, ptr %4, align 8, !tbaa !69
  %33 = getelementptr inbounds nuw %struct.ssl_st, ptr %32, i32 0, i32 14
  %34 = load ptr, ptr %33, align 8, !tbaa !75
  %35 = getelementptr inbounds nuw %struct.ssl3_state_st, ptr %34, i32 0, i32 33
  store i32 0, ptr %35, align 8, !tbaa !191
  store i32 1, ptr %3, align 4
  store i32 1, ptr %8, align 4
  br label %57

36:                                               ; preds = %17
  call void @llvm.lifetime.start.p0(i64 32, ptr %9) #8
  %37 = load ptr, ptr %5, align 8, !tbaa !128
  %38 = call i32 @CBB_add_u16(ptr noundef %37, i16 noundef zeroext 13172)
  %39 = icmp ne i32 %38, 0
  br i1 %39, label %40, label %54

40:                                               ; preds = %36
  %41 = load ptr, ptr %5, align 8, !tbaa !128
  %42 = call i32 @CBB_add_u16_length_prefixed(ptr noundef %41, ptr noundef %9)
  %43 = icmp ne i32 %42, 0
  br i1 %43, label %44, label %54

44:                                               ; preds = %40
  %45 = load ptr, ptr %6, align 8, !tbaa !55
  %46 = load i32, ptr %7, align 4, !tbaa !58
  %47 = zext i32 %46 to i64
  %48 = call i32 @CBB_add_bytes(ptr noundef %9, ptr noundef %45, i64 noundef %47)
  %49 = icmp ne i32 %48, 0
  br i1 %49, label %50, label %54

50:                                               ; preds = %44
  %51 = load ptr, ptr %5, align 8, !tbaa !128
  %52 = call i32 @CBB_flush(ptr noundef %51)
  %53 = icmp ne i32 %52, 0
  br i1 %53, label %55, label %54

54:                                               ; preds = %50, %44, %40, %36
  store i32 0, ptr %3, align 4
  store i32 1, ptr %8, align 4
  br label %56

55:                                               ; preds = %50
  store i32 1, ptr %3, align 4
  store i32 1, ptr %8, align 4
  br label %56

56:                                               ; preds = %55, %54
  call void @llvm.lifetime.end.p0(i64 32, ptr %9) #8
  br label %57

57:                                               ; preds = %56, %31
  call void @llvm.lifetime.end.p0(i64 4, ptr %7) #8
  call void @llvm.lifetime.end.p0(i64 8, ptr %6) #8
  br label %58

58:                                               ; preds = %57, %16
  %59 = load i32, ptr %3, align 4
  ret i32 %59
}