; Function Attrs: nounwind uwtable
define internal range(i32 0, 2) i32 @ext_npn_add_serverhello(ptr noundef %0, ptr noundef %1) #0 {
  %3 = alloca ptr, align 8
  %4 = alloca i32, align 4
  %5 = alloca %struct.cbb_st, align 8
  %6 = getelementptr inbounds nuw i8, ptr %0, i64 80
  %7 = load ptr, ptr %6, align 8, !tbaa !58
  %8 = getelementptr inbounds nuw i8, ptr %7, i64 728
  %9 = load i32, ptr %8, align 8, !tbaa !160
  %.not = icmp eq i32 %9, 0
  br i1 %.not, label %34, label %10

10:                                               ; preds = %2
  call void @llvm.lifetime.start.p0(i64 8, ptr nonnull %3) #21
  call void @llvm.lifetime.start.p0(i64 4, ptr nonnull %4) #21
  %11 = getelementptr inbounds nuw i8, ptr %0, i64 232
  %12 = load ptr, ptr %11, align 8, !tbaa !122
  %13 = getelementptr inbounds nuw i8, ptr %12, i64 504
  %14 = load ptr, ptr %13, align 8, !tbaa !167
  %15 = getelementptr inbounds nuw i8, ptr %12, i64 512
  %16 = load ptr, ptr %15, align 8, !tbaa !168
  %17 = call i32 %14(ptr noundef nonnull %0, ptr noundef nonnull %3, ptr noundef nonnull %4, ptr noundef %16) #21
  %.not8 = icmp eq i32 %17, 0
  br i1 %.not8, label %21, label %18

18:                                               ; preds = %10
  %19 = load ptr, ptr %6, align 8, !tbaa !58
  %20 = getelementptr inbounds nuw i8, ptr %19, i64 728
  store i32 0, ptr %20, align 8, !tbaa !160
  br label %33

21:                                               ; preds = %10
  call void @llvm.lifetime.start.p0(i64 32, ptr nonnull %5) #21
  %22 = call i32 @CBB_add_u16(ptr noundef %1, i16 noundef zeroext 13172) #21
  %.not9 = icmp eq i32 %22, 0
  br i1 %.not9, label %32, label %23

23:                                               ; preds = %21
  %24 = call i32 @CBB_add_u16_length_prefixed(ptr noundef %1, ptr noundef nonnull %5) #21
  %.not10 = icmp eq i32 %24, 0
  br i1 %.not10, label %32, label %25

25:                                               ; preds = %23
  %26 = load ptr, ptr %3, align 8, !tbaa !51
  %27 = load i32, ptr %4, align 4, !tbaa !80
  %28 = zext i32 %27 to i64
  %29 = call i32 @CBB_add_bytes(ptr noundef nonnull %5, ptr noundef %26, i64 noundef %28) #21
  %.not11 = icmp eq i32 %29, 0
  br i1 %.not11, label %32, label %30

30:                                               ; preds = %25
  %31 = call i32 @CBB_flush(ptr noundef %1) #21
  %.not12 = icmp ne i32 %31, 0
  %spec.select = zext i1 %.not12 to i32
  br label %32

32:                                               ; preds = %30, %21, %23, %25
  %.2 = phi i32 [ 0, %25 ], [ 0, %23 ], [ 0, %21 ], [ %spec.select, %30 ]
  call void @llvm.lifetime.end.p0(i64 32, ptr nonnull %5) #21
  br label %33

33:                                               ; preds = %32, %18
  %.1 = phi i32 [ 1, %18 ], [ %.2, %32 ]
  call void @llvm.lifetime.end.p0(i64 4, ptr nonnull %4) #21
  call void @llvm.lifetime.end.p0(i64 8, ptr nonnull %3) #21
  br label %34

34:                                               ; preds = %2, %33
  %.0 = phi i32 [ %.1, %33 ], [ 1, %2 ]
  ret i32 %.0
}